target datalayout = "e-m:e-p270:32:32-p271:32:32-p272:64:64-i64:64-i128:128-f80:128-n8:16:32:64-S128"
target triple = "x86_64-pc-linux-gnu"

%struct.URLContext = type { ptr, ptr, ptr, ptr, i32, i32, i32, i32, %struct.AVIOInterruptCB, i64, ptr, ptr, i32 }
%struct.AVIOInterruptCB = type { ptr, ptr }
%struct.HLSContext = type { [4096 x i8], i64, i32, i32, i32, ptr, i32, ptr, i32, ptr, i64 }
%struct.segment = type { i64, [4096 x i8] }

@.str.15 = private unnamed_addr constant [51 x i8] c"skipping %d segments ahead, expired from playlist\0A\00", align 1
@.str.16 = private unnamed_addr constant [12 x i8] c"opening %s\0A\00", align 1
@.str.17 = private unnamed_addr constant [19 x i8] c"Unable to open %s\0A\00", align 1

; Function Attrs: inlinehint nounwind uwtable
define internal i32 @ffurl_read(ptr noundef %0, ptr noundef %1, i32 noundef %2) #7 {
  %4 = alloca ptr, align 8
  %5 = alloca ptr, align 8
  %6 = alloca i32, align 4
  store ptr %0, ptr %4, align 8, !tbaa !4
  store ptr %1, ptr %5, align 8, !tbaa !9
  store i32 %2, ptr %6, align 4, !tbaa !11
  %7 = load ptr, ptr %4, align 8, !tbaa !4
  %8 = load ptr, ptr %5, align 8, !tbaa !9
  %9 = load i32, ptr %6, align 4, !tbaa !11
  %10 = call i32 @ffurl_read2(ptr noundef %7, ptr noundef %8, i32 noundef %9)
  ret i32 %10
}

; Function Attrs: nounwind uwtable
define internal i32 @hls_read(ptr noundef %0, ptr noundef %1, i32 noundef %2) #0 {
  %4 = alloca i32, align 4
  %5 = alloca ptr, align 8
  %6 = alloca ptr, align 8
  %7 = alloca i32, align 4
  %8 = alloca ptr, align 8
  %9 = alloca ptr, align 8
  %10 = alloca i32, align 4
  %11 = alloca i64, align 8
  %12 = alloca i32, align 4
  %13 = alloca i64, align 8
  store ptr %0, ptr %5, align 8, !tbaa !4
  store ptr %1, ptr %6, align 8, !tbaa !9
  store i32 %2, ptr %7, align 4, !tbaa !11
  call void @llvm.lifetime.start.p0(i64 8, ptr %8) #8
  %14 = load ptr, ptr %5, align 8, !tbaa !4
  %15 = getelementptr inbounds nuw %struct.URLContext, ptr %14, i32 0, i32 2
  %16 = load ptr, ptr %15, align 8, !tbaa !13
  store ptr %16, ptr %8, align 8, !tbaa !19
  call void @llvm.lifetime.start.p0(i64 8, ptr %9) #8
  call void @llvm.lifetime.start.p0(i64 4, ptr %10) #8
  call void @llvm.lifetime.start.p0(i64 8, ptr %11) #8
  br label %17

17:                                               ; preds = %207, %3
  %18 = load ptr, ptr %8, align 8, !tbaa !19
  %19 = getelementptr inbounds nuw %struct.HLSContext, ptr %18, i32 0, i32 9
  %20 = load ptr, ptr %19, align 8, !tbaa !38
  %21 = icmp ne ptr %20, null
  br i1 %21, label %22, label %34

22:                                               ; preds = %17
  %23 = load ptr, ptr %8, align 8, !tbaa !19
  %24 = getelementptr inbounds nuw %struct.HLSContext, ptr %23, i32 0, i32 9
  %25 = load ptr, ptr %24, align 8, !tbaa !38
  %26 = load ptr, ptr %6, align 8, !tbaa !9
  %27 = load i32, ptr %7, align 4, !tbaa !11
  %28 = call i32 @ffurl_read(ptr noundef %25, ptr noundef %26, i32 noundef %27)
  store i32 %28, ptr %10, align 4, !tbaa !11
  %29 = load i32, ptr %10, align 4, !tbaa !11
  %30 = icmp sgt i32 %29, 0
  br i1 %30, label %31, label %33

31:                                               ; preds = %22
  %32 = load i32, ptr %10, align 4, !tbaa !11
  store i32 %32, ptr %4, align 4
  store i32 1, ptr %12, align 4
  br label %208

33:                                               ; preds = %22
  br label %34

34:                                               ; preds = %33, %17
  %35 = load ptr, ptr %8, align 8, !tbaa !19
  %36 = getelementptr inbounds nuw %struct.HLSContext, ptr %35, i32 0, i32 9
  %37 = load ptr, ptr %36, align 8, !tbaa !38
  %38 = icmp ne ptr %37, null
  br i1 %38, label %39, label %47

39:                                               ; preds = %34
  %40 = load ptr, ptr %8, align 8, !tbaa !19
  %41 = getelementptr inbounds nuw %struct.HLSContext, ptr %40, i32 0, i32 9
  %42 = call i32 @ffurl_closep(ptr noundef %41)
  %43 = load ptr, ptr %8, align 8, !tbaa !19
  %44 = getelementptr inbounds nuw %struct.HLSContext, ptr %43, i32 0, i32 8
  %45 = load i32, ptr %44, align 8, !tbaa !36
  %46 = add nsw i32 %45, 1
  store i32 %46, ptr %44, align 8, !tbaa !36
  br label %47

47:                                               ; preds = %39, %34
  %48 = load ptr, ptr %8, align 8, !tbaa !19
  %49 = getelementptr inbounds nuw %struct.HLSContext, ptr %48, i32 0, i32 4
  %50 = load i32, ptr %49, align 8, !tbaa !22
  %51 = icmp sgt i32 %50, 0
  br i1 %51, label %52, label %65

52:                                               ; preds = %47
  %53 = load ptr, ptr %8, align 8, !tbaa !19
  %54 = getelementptr inbounds nuw %struct.HLSContext, ptr %53, i32 0, i32 5
  %55 = load ptr, ptr %54, align 8, !tbaa !39
  %56 = load ptr, ptr %8, align 8, !tbaa !19
  %57 = getelementptr inbounds nuw %struct.HLSContext, ptr %56, i32 0, i32 4
  %58 = load i32, ptr %57, align 8, !tbaa !22
  %59 = sub nsw i32 %58, 1
  %60 = sext i32 %59 to i64
  %61 = getelementptr inbounds ptr, ptr %55, i64 %60
  %62 = load ptr, ptr %61, align 8, !tbaa !40
  %63 = getelementptr inbounds nuw %struct.segment, ptr %62, i32 0, i32 0
  %64 = load i64, ptr %63, align 8, !tbaa !42
  br label %69

65:                                               ; preds = %47
  %66 = load ptr, ptr %8, align 8, !tbaa !19
  %67 = getelementptr inbounds nuw %struct.HLSContext, ptr %66, i32 0, i32 1
  %68 = load i64, ptr %67, align 8, !tbaa !44
  br label %69

69:                                               ; preds = %65, %52
  %70 = phi i64 [ %64, %52 ], [ %68, %65 ]
  store i64 %70, ptr %11, align 8, !tbaa !45
  br label %71

71:                                               ; preds = %200, %160, %69
  %72 = load ptr, ptr %8, align 8, !tbaa !19
  %73 = getelementptr inbounds nuw %struct.HLSContext, ptr %72, i32 0, i32 3
  %74 = load i32, ptr %73, align 4, !tbaa !37
  %75 = icmp ne i32 %74, 0
  br i1 %75, label %103, label %76

76:                                               ; preds = %71
  call void @llvm.lifetime.start.p0(i64 8, ptr %13) #8
  %77 = call i64 @av_gettime_relative()
  store i64 %77, ptr %13, align 8, !tbaa !45
  %78 = load i64, ptr %13, align 8, !tbaa !45
  %79 = load ptr, ptr %8, align 8, !tbaa !19
  %80 = getelementptr inbounds nuw %struct.HLSContext, ptr %79, i32 0, i32 10
  %81 = load i64, ptr %80, align 8, !tbaa !46
  %82 = sub nsw i64 %78, %81
  %83 = load i64, ptr %11, align 8, !tbaa !45
  %84 = icmp sge i64 %82, %83
  br i1 %84, label %85, label %99

85:                                               ; preds = %76
  %86 = load ptr, ptr %5, align 8, !tbaa !4
  %87 = load ptr, ptr %8, align 8, !tbaa !19
  %88 = getelementptr inbounds nuw %struct.HLSContext, ptr %87, i32 0, i32 0
  %89 = getelementptr inbounds [4096 x i8], ptr %88, i64 0, i64 0
  %90 = call i32 @parse_playlist(ptr noundef %86, ptr noundef %89)
  store i32 %90, ptr %10, align 4, !tbaa !11
  %91 = icmp slt i32 %90, 0
  br i1 %91, label %92, label %94

92:                                               ; preds = %85
  %93 = load i32, ptr %10, align 4, !tbaa !11
  store i32 %93, ptr %4, align 4
  store i32 1, ptr %12, align 4
  br label %100

94:                                               ; preds = %85
  %95 = load ptr, ptr %8, align 8, !tbaa !19
  %96 = getelementptr inbounds nuw %struct.HLSContext, ptr %95, i32 0, i32 1
  %97 = load i64, ptr %96, align 8, !tbaa !44
  %98 = sdiv i64 %97, 2
  store i64 %98, ptr %11, align 8, !tbaa !45
  br label %99

99:                                               ; preds = %94, %76
  store i32 0, ptr %12, align 4
  br label %100

100:                                              ; preds = %99, %92
  call void @llvm.lifetime.end.p0(i64 8, ptr %13) #8
  %101 = load i32, ptr %12, align 4
  switch i32 %101, label %208 [
    i32 0, label %102
  ]

102:                                              ; preds = %100
  br label %103

103:                                              ; preds = %102, %71
  %104 = load ptr, ptr %8, align 8, !tbaa !19
  %105 = getelementptr inbounds nuw %struct.HLSContext, ptr %104, i32 0, i32 8
  %106 = load i32, ptr %105, align 8, !tbaa !36
  %107 = load ptr, ptr %8, align 8, !tbaa !19
  %108 = getelementptr inbounds nuw %struct.HLSContext, ptr %107, i32 0, i32 2
  %109 = load i32, ptr %108, align 8, !tbaa !35
  %110 = icmp slt i32 %106, %109
  br i1 %110, label %111, label %125

111:                                              ; preds = %103
  %112 = load ptr, ptr %5, align 8, !tbaa !4
  %113 = load ptr, ptr %8, align 8, !tbaa !19
  %114 = getelementptr inbounds nuw %struct.HLSContext, ptr %113, i32 0, i32 2
  %115 = load i32, ptr %114, align 8, !tbaa !35
  %116 = load ptr, ptr %8, align 8, !tbaa !19
  %117 = getelementptr inbounds nuw %struct.HLSContext, ptr %116, i32 0, i32 8
  %118 = load i32, ptr %117, align 8, !tbaa !36
  %119 = sub nsw i32 %115, %118
  call void (ptr, i32, ptr, ...) @av_log(ptr noundef %112, i32 noundef 24, ptr noundef @.str.15, i32 noundef %119)
  %120 = load ptr, ptr %8, align 8, !tbaa !19
  %121 = getelementptr inbounds nuw %struct.HLSContext, ptr %120, i32 0, i32 2
  %122 = load i32, ptr %121, align 8, !tbaa !35
  %123 = load ptr, ptr %8, align 8, !tbaa !19
  %124 = getelementptr inbounds nuw %struct.HLSContext, ptr %123, i32 0, i32 8
  store i32 %122, ptr %124, align 8, !tbaa !36
  br label %125

125:                                              ; preds = %111, %103
  %126 = load ptr, ptr %8, align 8, !tbaa !19
  %127 = getelementptr inbounds nuw %struct.HLSContext, ptr %126, i32 0, i32 8
  %128 = load i32, ptr %127, align 8, !tbaa !36
  %129 = load ptr, ptr %8, align 8, !tbaa !19
  %130 = getelementptr inbounds nuw %struct.HLSContext, ptr %129, i32 0, i32 2
  %131 = load i32, ptr %130, align 8, !tbaa !35
  %132 = sub nsw i32 %128, %131
  %133 = load ptr, ptr %8, align 8, !tbaa !19
  %134 = getelementptr inbounds nuw %struct.HLSContext, ptr %133, i32 0, i32 4
  %135 = load i32, ptr %134, align 8, !tbaa !22
  %136 = icmp sge i32 %132, %135
  br i1 %136, label %137, label %161

137:                                              ; preds = %125
  %138 = load ptr, ptr %8, align 8, !tbaa !19
  %139 = getelementptr inbounds nuw %struct.HLSContext, ptr %138, i32 0, i32 3
  %140 = load i32, ptr %139, align 4, !tbaa !37
  %141 = icmp ne i32 %140, 0
  br i1 %141, label %142, label %143

142:                                              ; preds = %137
  store i32 -541478725, ptr %4, align 4
  store i32 1, ptr %12, align 4
  br label %208

143:                                              ; preds = %137
  br label %144

144:                                              ; preds = %158, %143
  %145 = call i64 @av_gettime_relative()
  %146 = load ptr, ptr %8, align 8, !tbaa !19
  %147 = getelementptr inbounds nuw %struct.HLSContext, ptr %146, i32 0, i32 10
  %148 = load i64, ptr %147, align 8, !tbaa !46
  %149 = sub nsw i64 %145, %148
  %150 = load i64, ptr %11, align 8, !tbaa !45
  %151 = icmp slt i64 %149, %150
  br i1 %151, label %152, label %160

152:                                              ; preds = %144
  %153 = load ptr, ptr %5, align 8, !tbaa !4
  %154 = getelementptr inbounds nuw %struct.URLContext, ptr %153, i32 0, i32 8
  %155 = call i32 @ff_check_interrupt(ptr noundef %154)
  %156 = icmp ne i32 %155, 0
  br i1 %156, label %157, label %158

157:                                              ; preds = %152
  store i32 -1414092869, ptr %4, align 4
  store i32 1, ptr %12, align 4
  br label %208

158:                                              ; preds = %152
  %159 = call i32 @av_usleep(i32 noundef 100000)
  br label %144, !llvm.loop !47

160:                                              ; preds = %144
  br label %71

161:                                              ; preds = %125
  %162 = load ptr, ptr %8, align 8, !tbaa !19
  %163 = getelementptr inbounds nuw %struct.HLSContext, ptr %162, i32 0, i32 5
  %164 = load ptr, ptr %163, align 8, !tbaa !39
  %165 = load ptr, ptr %8, align 8, !tbaa !19
  %166 = getelementptr inbounds nuw %struct.HLSContext, ptr %165, i32 0, i32 8
  %167 = load i32, ptr %166, align 8, !tbaa !36
  %168 = load ptr, ptr %8, align 8, !tbaa !19
  %169 = getelementptr inbounds nuw %struct.HLSContext, ptr %168, i32 0, i32 2
  %170 = load i32, ptr %169, align 8, !tbaa !35
  %171 = sub nsw i32 %167, %170
  %172 = sext i32 %171 to i64
  %173 = getelementptr inbounds ptr, ptr %164, i64 %172
  %174 = load ptr, ptr %173, align 8, !tbaa !40
  %175 = getelementptr inbounds nuw %struct.segment, ptr %174, i32 0, i32 1
  %176 = getelementptr inbounds [4096 x i8], ptr %175, i64 0, i64 0
  store ptr %176, ptr %9, align 8, !tbaa !9
  %177 = load ptr, ptr %5, align 8, !tbaa !4
  %178 = load ptr, ptr %9, align 8, !tbaa !9
  call void (ptr, i32, ptr, ...) @av_log(ptr noundef %177, i32 noundef 48, ptr noundef @.str.16, ptr noundef %178)
  %179 = load ptr, ptr %8, align 8, !tbaa !19
  %180 = getelementptr inbounds nuw %struct.HLSContext, ptr %179, i32 0, i32 9
  %181 = load ptr, ptr %9, align 8, !tbaa !9
  %182 = load ptr, ptr %5, align 8, !tbaa !4
  %183 = getelementptr inbounds nuw %struct.URLContext, ptr %182, i32 0, i32 8
  %184 = load ptr, ptr %5, align 8, !tbaa !4
  %185 = getelementptr inbounds nuw %struct.URLContext, ptr %184, i32 0, i32 10
  %186 = load ptr, ptr %185, align 8, !tbaa !48
  %187 = load ptr, ptr %5, align 8, !tbaa !4
  %188 = getelementptr inbounds nuw %struct.URLContext, ptr %187, i32 0, i32 11
  %189 = load ptr, ptr %188, align 8, !tbaa !49
  %190 = load ptr, ptr %5, align 8, !tbaa !4
  %191 = call i32 @ffurl_open_whitelist(ptr noundef %180, ptr noundef %181, i32 noundef 1, ptr noundef %183, ptr noundef null, ptr noundef %186, ptr noundef %189, ptr noundef %190)
  store i32 %191, ptr %10, align 4, !tbaa !11
  %192 = load i32, ptr %10, align 4, !tbaa !11
  %193 = icmp slt i32 %192, 0
  br i1 %193, label %194, label %207

194:                                              ; preds = %161
  %195 = load ptr, ptr %5, align 8, !tbaa !4
  %196 = getelementptr inbounds nuw %struct.URLContext, ptr %195, i32 0, i32 8
  %197 = call i32 @ff_check_interrupt(ptr noundef %196)
  %198 = icmp ne i32 %197, 0
  br i1 %198, label %199, label %200

199:                                              ; preds = %194
  store i32 -1414092869, ptr %4, align 4
  store i32 1, ptr %12, align 4
  br label %208

200:                                              ; preds = %194
  %201 = load ptr, ptr %5, align 8, !tbaa !4
  %202 = load ptr, ptr %9, align 8, !tbaa !9
  call void (ptr, i32, ptr, ...) @av_log(ptr noundef %201, i32 noundef 24, ptr noundef @.str.17, ptr noundef %202)
  %203 = load ptr, ptr %8, align 8, !tbaa !19
  %204 = getelementptr inbounds nuw %struct.HLSContext, ptr %203, i32 0, i32 8
  %205 = load i32, ptr %204, align 8, !tbaa !36
  %206 = add nsw i32 %205, 1
  store i32 %206, ptr %204, align 8, !tbaa !36
  br label %71

207:                                              ; preds = %161
  br label %17

208:                                              ; preds = %199, %157, %142, %100, %31
  call void @llvm.lifetime.end.p0(i64 8, ptr %11) #8
  call void @llvm.lifetime.end.p0(i64 4, ptr %10) #8
  call void @llvm.lifetime.end.p0(i64 8, ptr %9) #8
  call void @llvm.lifetime.end.p0(i64 8, ptr %8) #8
  %209 = load i32, ptr %4, align 4
  ret i32 %209
}