; Function Attrs: nounwind uwtable
define internal range(i32 1, 0) i32 @hls_read(ptr noundef %0, ptr noundef %1, i32 noundef %2) #0 {
  %4 = getelementptr inbounds nuw i8, ptr %0, i64 16
  %5 = load ptr, ptr %4, align 8, !tbaa !4
  %6 = getelementptr inbounds nuw i8, ptr %5, i64 4152
  %7 = getelementptr inbounds nuw i8, ptr %5, i64 4144
  %8 = getelementptr inbounds nuw i8, ptr %5, i64 4112
  %9 = getelementptr inbounds nuw i8, ptr %5, i64 4096
  %10 = getelementptr inbounds nuw i8, ptr %5, i64 4120
  %11 = getelementptr inbounds nuw i8, ptr %5, i64 4108
  %12 = getelementptr inbounds nuw i8, ptr %5, i64 4160
  %13 = getelementptr inbounds nuw i8, ptr %5, i64 4104
  %14 = getelementptr inbounds nuw i8, ptr %0, i64 48
  %15 = getelementptr inbounds nuw i8, ptr %0, i64 72
  %16 = getelementptr inbounds nuw i8, ptr %0, i64 80
  br label %.loopexit79

.loopexit79:                                      ; preds = %71, %3
  %17 = load ptr, ptr %6, align 8, !tbaa !37
  %.not = icmp eq ptr %17, null
  br i1 %.not, label %.thread, label %18

18:                                               ; preds = %.loopexit79
  %19 = tail call i32 @ffurl_read2(ptr noundef nonnull %17, ptr noundef %1, i32 noundef %2) #7
  %20 = icmp sgt i32 %19, 0
  br i1 %20, label %.loopexit77, label %21

21:                                               ; preds = %18
  %.pr = load ptr, ptr %6, align 8, !tbaa !37
  %.not65 = icmp eq ptr %.pr, null
  br i1 %.not65, label %.thread, label %22

22:                                               ; preds = %21
  %23 = tail call i32 @ffurl_closep(ptr noundef nonnull %6) #7
  %24 = load i32, ptr %7, align 8, !tbaa !32
  %25 = add nsw i32 %24, 1
  store i32 %25, ptr %7, align 8, !tbaa !32
  br label %.thread

.thread:                                          ; preds = %.loopexit79, %22, %21
  %26 = load i32, ptr %8, align 8, !tbaa !17
  %27 = icmp sgt i32 %26, 0
  br i1 %27, label %28, label %34

28:                                               ; preds = %.thread
  %29 = load ptr, ptr %10, align 8, !tbaa !34
  %30 = zext nneg i32 %26 to i64
  %31 = getelementptr ptr, ptr %29, i64 %30
  %32 = getelementptr i8, ptr %31, i64 -8
  %33 = load ptr, ptr %32, align 8, !tbaa !38
  br label %34

34:                                               ; preds = %.thread, %28
  %.in = phi ptr [ %33, %28 ], [ %9, %.thread ]
  %35 = load i64, ptr %.in, align 8, !tbaa !40
  br label %.backedge

.backedge:                                        ; preds = %.backedge.backedge, %34
  %.054 = phi i64 [ %35, %34 ], [ %.155, %.backedge.backedge ]
  %36 = load i32, ptr %11, align 4, !tbaa !33
  %.not66 = icmp eq i32 %36, 0
  br i1 %.not66, label %37, label %.thread73

37:                                               ; preds = %.backedge
  %38 = tail call i64 @av_gettime_relative() #7
  %39 = load i64, ptr %12, align 8, !tbaa !41
  %40 = sub nsw i64 %38, %39
  %.not67 = icmp slt i64 %40, %.054
  br i1 %.not67, label %.thread73, label %41

41:                                               ; preds = %37
  %42 = tail call fastcc i32 @parse_playlist(ptr noundef %0, ptr noundef nonnull %5)
  %43 = icmp slt i32 %42, 0
  br i1 %43, label %.loopexit77, label %44

44:                                               ; preds = %41
  %45 = load i64, ptr %9, align 8, !tbaa !42
  %46 = sdiv i64 %45, 2
  br label %.thread73

.thread73:                                        ; preds = %37, %44, %.backedge
  %.155 = phi i64 [ %.054, %.backedge ], [ %.054, %37 ], [ %46, %44 ]
  %47 = load i32, ptr %7, align 8, !tbaa !32
  %48 = load i32, ptr %13, align 8, !tbaa !31
  %49 = icmp slt i32 %47, %48
  br i1 %49, label %50, label %53

50:                                               ; preds = %.thread73
  %51 = sub nsw i32 %48, %47
  tail call void (ptr, i32, ptr, ...) @av_log(ptr noundef %0, i32 noundef 24, ptr noundef nonnull @.str.15, i32 noundef %51) #7
  %52 = load i32, ptr %13, align 8, !tbaa !31
  store i32 %52, ptr %7, align 8, !tbaa !32
  br label %53

53:                                               ; preds = %50, %.thread73
  %54 = phi i32 [ %52, %50 ], [ %48, %.thread73 ]
  %55 = phi i32 [ %52, %50 ], [ %47, %.thread73 ]
  %56 = sub nsw i32 %55, %54
  %57 = load i32, ptr %8, align 8, !tbaa !17
  %.not68 = icmp slt i32 %56, %57
  br i1 %.not68, label %71, label %58

58:                                               ; preds = %53
  %59 = load i32, ptr %11, align 4, !tbaa !33
  %.not70 = icmp eq i32 %59, 0
  br i1 %.not70, label %.preheader, label %.loopexit77

.preheader:                                       ; preds = %58
  %60 = tail call i64 @av_gettime_relative() #7
  %61 = load i64, ptr %12, align 8, !tbaa !41
  %62 = sub nsw i64 %60, %61
  %63 = icmp slt i64 %62, %.155
  br i1 %63, label %.lr.ph, label %.backedge.backedge

.backedge.backedge:                               ; preds = %65, %.preheader, %83
  br label %.backedge

.lr.ph:                                           ; preds = %.preheader, %65
  %64 = tail call i32 @ff_check_interrupt(ptr noundef nonnull %14) #7
  %.not71 = icmp eq i32 %64, 0
  br i1 %.not71, label %65, label %.loopexit77

65:                                               ; preds = %.lr.ph
  %66 = tail call i32 @av_usleep(i32 noundef 100000) #7
  %67 = tail call i64 @av_gettime_relative() #7
  %68 = load i64, ptr %12, align 8, !tbaa !41
  %69 = sub nsw i64 %67, %68
  %70 = icmp slt i64 %69, %.155
  br i1 %70, label %.lr.ph, label %.backedge.backedge, !llvm.loop !43

71:                                               ; preds = %53
  %72 = load ptr, ptr %10, align 8, !tbaa !34
  %73 = sext i32 %56 to i64
  %74 = getelementptr inbounds ptr, ptr %72, i64 %73
  %75 = load ptr, ptr %74, align 8, !tbaa !38
  %76 = getelementptr inbounds nuw i8, ptr %75, i64 8
  tail call void (ptr, i32, ptr, ...) @av_log(ptr noundef %0, i32 noundef 48, ptr noundef nonnull @.str.16, ptr noundef nonnull %76) #7
  %77 = load ptr, ptr %15, align 8, !tbaa !44
  %78 = load ptr, ptr %16, align 8, !tbaa !45
  %79 = tail call i32 @ffurl_open_whitelist(ptr noundef nonnull %6, ptr noundef nonnull %76, i32 noundef 1, ptr noundef nonnull %14, ptr noundef null, ptr noundef %77, ptr noundef %78, ptr noundef %0) #7
  %80 = icmp slt i32 %79, 0
  br i1 %80, label %81, label %.loopexit79

81:                                               ; preds = %71
  %82 = tail call i32 @ff_check_interrupt(ptr noundef nonnull %14) #7
  %.not69 = icmp eq i32 %82, 0
  br i1 %.not69, label %83, label %.loopexit77

83:                                               ; preds = %81
  tail call void (ptr, i32, ptr, ...) @av_log(ptr noundef nonnull %0, i32 noundef 24, ptr noundef nonnull @.str.17, ptr noundef nonnull %76) #7
  %84 = load i32, ptr %7, align 8, !tbaa !32
  %85 = add nsw i32 %84, 1
  store i32 %85, ptr %7, align 8, !tbaa !32
  br label %.backedge.backedge

.loopexit77:                                      ; preds = %18, %41, %81, %58, %.lr.ph
  %.1 = phi i32 [ -1414092869, %.lr.ph ], [ %42, %41 ], [ -1414092869, %81 ], [ -541478725, %58 ], [ %19, %18 ]
  ret i32 %.1
}